target datalayout = "e-m:e-p270:32:32-p271:32:32-p272:64:64-i64:64-i128:128-f80:128-n8:16:32:64-S128"
target triple = "x86_64-pc-linux-gnu"

%union.pthread_mutex_t = type { %struct.__pthread_mutex_s }
%struct.__pthread_mutex_s = type { i32, i32, i32, i32, i32, i16, i16, %struct.__pthread_internal_list }
%struct.__pthread_internal_list = type { ptr, ptr }
%union.pthread_cond_t = type { %struct.__pthread_cond_s }
%struct.__pthread_cond_s = type { %union.__atomic_wide_counter, %union.__atomic_wide_counter, [2 x i32], [2 x i32], i32, i32, [2 x i32] }
%union.__atomic_wide_counter = type { i64 }
%union.pthread_attr_t = type { i64, [48 x i8] }
%struct.slurm_conf_t = type { i64, ptr, i16, ptr, ptr, ptr, ptr, ptr, i16, ptr, ptr, ptr, ptr, ptr, ptr, ptr, i16, ptr, ptr, ptr, ptr, i16, ptr, ptr, ptr, i64, ptr, ptr, ptr, ptr, i16, ptr, ptr, i16, i32, ptr, i32, ptr, i32, i32, ptr, ptr, i64, i64, ptr, i16, i16, ptr, i32, i32, ptr, i32, ptr, i32, i16, i16, i16, ptr, i16, i16, ptr, ptr, i32, i16, i16, ptr, i32, i16, ptr, ptr, ptr, ptr, i16, ptr, ptr, ptr, ptr, i32, ptr, ptr, ptr, ptr, i16, i16, ptr, i32, i32, i32, i16, i16, ptr, ptr, i16, ptr, ptr, i32, i32, i32, i32, i32, i64, i32, i32, i16, ptr, ptr, i32, ptr, ptr, ptr, i16, i32, ptr, ptr, i16, ptr, ptr, i32, i16, ptr, ptr, ptr, ptr, i32, i32, i16, i16, i32, ptr, i16, ptr, i32, i32, i32, i32, i32, i32, ptr, i16, ptr, ptr, i32, i16, ptr, i32, i16, i16, ptr, ptr, ptr, i16, ptr, ptr, ptr, ptr, i16, i16, ptr, i16, ptr, i16, ptr, i16, ptr, i16, ptr, ptr, ptr, ptr, i16, ptr, ptr, ptr, i32, ptr, i32, ptr, ptr, i16, ptr, ptr, i32, i16, ptr, ptr, i16, i16, ptr, i16, ptr, ptr, ptr, i32, ptr, i16, i16, ptr, ptr, ptr, ptr, ptr, ptr, ptr, ptr, i16, i32, i16, ptr, ptr, ptr, ptr, i32, ptr, ptr, ptr, i16, ptr, ptr, ptr, i16, ptr, i16, ptr, i16, i16, ptr }
%struct.stepd_step_rec_t = type { ptr, ptr, i32, %union.pthread_cond_t, %union.pthread_mutex_t, %struct.slurm_step_id_msg, i32, i32, i32, i32, i32, i32, ptr, ptr, i32, i32, ptr, i32, i32, i32, i32, i32, ptr, ptr, ptr, ptr, i32, i32, i64, i64, i16, i32, ptr, ptr, ptr, i32, ptr, i32, ptr, i32, ptr, i16, i32, i32, i32, ptr, i32, ptr, ptr, ptr, ptr, i32, i32, ptr, ptr, i8, i8, i8, i64, i32, ptr, ptr, ptr, ptr, ptr, ptr, ptr, ptr, ptr, ptr, i32, i32, ptr, i8, %union.pthread_cond_t, %union.pthread_mutex_t, i64, ptr, i32, i32, i32, ptr, i64, ptr, ptr, i8, ptr, i16, ptr, ptr, ptr, ptr, ptr, ptr, i64, ptr, i64, ptr, i16, i8, i16, i32, ptr, i16, ptr, ptr, i16, ptr, ptr, ptr, i8 }
%struct.slurm_step_id_msg = type { i64, i32, i32, i32 }

@lock = internal global %union.pthread_mutex_t zeroinitializer, align 8
@.str = private unnamed_addr constant [29 x i8] c"%s: pthread_mutex_lock(): %m\00", align 1
@__func__.step_terminate_monitor_start = private unnamed_addr constant [29 x i8] c"step_terminate_monitor_start\00", align 1
@running_flag = internal global i8 0, align 1
@.str.1 = private unnamed_addr constant [31 x i8] c"%s: pthread_mutex_unlock(): %m\00", align 1
@timeout = internal global i16 0, align 2
@program_name = internal global ptr null, align 8
@.str.2 = private unnamed_addr constant [22 x i8] c"pthread_attr_init: %m\00", align 1
@.str.3 = private unnamed_addr constant [26 x i8] c"pthread_attr_setscope: %m\00", align 1
@.str.4 = private unnamed_addr constant [30 x i8] c"pthread_attr_setstacksize: %m\00", align 1
@tid = internal global i64 0, align 8
@.str.5 = private unnamed_addr constant [28 x i8] c"%s: pthread_create error %m\00", align 1
@.str.6 = private unnamed_addr constant [55 x i8] c"pthread_attr_destroy failed, possible memory leak!: %m\00", align 1
@recorded_jobid = internal global i32 -2, align 4
@recorded_stepid = internal global i32 -2, align 4

; Function Attrs: nounwind uwtable
define dso_local void @step_terminate_monitor_start(ptr noundef %0) #0 {
  %2 = alloca ptr, align 8
  %3 = alloca ptr, align 8
  %4 = alloca i32, align 4
  %5 = alloca i32, align 4
  %6 = alloca i32, align 4
  %7 = alloca %union.pthread_attr_t, align 8
  %8 = alloca i32, align 4
  %9 = alloca i32, align 4
  %10 = alloca i32, align 4
  %11 = alloca i32, align 4
  store ptr %0, ptr %2, align 8
  call void @llvm.lifetime.start.p0(i64 8, ptr %3) #7
  br label %12

12:                                               ; preds = %1
  call void @llvm.lifetime.start.p0(i64 4, ptr %4) #7
  %13 = call i32 @pthread_mutex_lock(ptr noundef @lock) #7
  store i32 %13, ptr %4, align 4
  %14 = load i32, ptr %4, align 4
  %15 = icmp ne i32 %14, 0
  br i1 %15, label %16, label %19

16:                                               ; preds = %12
  %17 = load i32, ptr %4, align 4
  %18 = call ptr @__errno_location() #8
  store i32 %17, ptr %18, align 4
  call void (ptr, ...) @fatal_abort(ptr noundef @.str, ptr noundef @__func__.step_terminate_monitor_start) #9
  unreachable

19:                                               ; preds = %12
  call void @llvm.lifetime.end.p0(i64 4, ptr %4) #7
  br label %20

20:                                               ; preds = %19
  br label %21

21:                                               ; preds = %20
  %22 = load i8, ptr @running_flag, align 1, !range !8, !noundef !9
  %23 = trunc i8 %22 to i1
  br i1 %23, label %24, label %35

24:                                               ; preds = %21
  br label %25

25:                                               ; preds = %24
  call void @llvm.lifetime.start.p0(i64 4, ptr %5) #7
  %26 = call i32 @pthread_mutex_unlock(ptr noundef @lock) #7
  store i32 %26, ptr %5, align 4
  %27 = load i32, ptr %5, align 4
  %28 = icmp ne i32 %27, 0
  br i1 %28, label %29, label %32

29:                                               ; preds = %25
  %30 = load i32, ptr %5, align 4
  %31 = call ptr @__errno_location() #8
  store i32 %30, ptr %31, align 4
  call void (ptr, ...) @fatal_abort(ptr noundef @.str.1, ptr noundef @__func__.step_terminate_monitor_start) #9
  unreachable

32:                                               ; preds = %25
  call void @llvm.lifetime.end.p0(i64 4, ptr %5) #7
  br label %33

33:                                               ; preds = %32
  br label %34

34:                                               ; preds = %33
  store i32 1, ptr %6, align 4
  br label %110

35:                                               ; preds = %21
  %36 = call ptr @slurm_conf_lock()
  store ptr %36, ptr %3, align 8
  %37 = load ptr, ptr %3, align 8
  %38 = getelementptr inbounds nuw %struct.slurm_conf_t, ptr %37, i32 0, i32 221
  %39 = load i16, ptr %38, align 8
  store i16 %39, ptr @timeout, align 2
  %40 = load ptr, ptr %3, align 8
  %41 = getelementptr inbounds nuw %struct.slurm_conf_t, ptr %40, i32 0, i32 220
  %42 = load ptr, ptr %41, align 8
  %43 = call ptr @xstrdup(ptr noundef %42)
  store ptr %43, ptr @program_name, align 8
  call void @slurm_conf_unlock()
  store i8 1, ptr @running_flag, align 1
  br label %44

44:                                               ; preds = %35
  call void @llvm.lifetime.start.p0(i64 56, ptr %7) #7
  call void @llvm.lifetime.start.p0(i64 4, ptr %8) #7
  br label %45

45:                                               ; preds = %44
  call void @llvm.lifetime.start.p0(i64 4, ptr %9) #7
  %46 = call i32 @pthread_attr_init(ptr noundef %7) #7
  store i32 %46, ptr %9, align 4
  %47 = load i32, ptr %9, align 4
  %48 = icmp ne i32 %47, 0
  br i1 %48, label %49, label %52

49:                                               ; preds = %45
  %50 = load i32, ptr %9, align 4
  %51 = call ptr @__errno_location() #8
  store i32 %50, ptr %51, align 4
  call void (ptr, ...) @fatal(ptr noundef @.str.2) #9
  unreachable

52:                                               ; preds = %45
  %53 = call i32 @pthread_attr_setscope(ptr noundef %7, i32 noundef 0) #7
  store i32 %53, ptr %9, align 4
  %54 = load i32, ptr %9, align 4
  %55 = icmp ne i32 %54, 0
  br i1 %55, label %56, label %60

56:                                               ; preds = %52
  %57 = load i32, ptr %9, align 4
  %58 = call ptr @__errno_location() #8
  store i32 %57, ptr %58, align 4
  %59 = call i32 (ptr, ...) @error(ptr noundef @.str.3)
  br label %60

60:                                               ; preds = %56, %52
  %61 = call i32 @pthread_attr_setstacksize(ptr noundef %7, i64 noundef 1048576) #7
  store i32 %61, ptr %9, align 4
  %62 = load i32, ptr %9, align 4
  %63 = icmp ne i32 %62, 0
  br i1 %63, label %64, label %68

64:                                               ; preds = %60
  %65 = load i32, ptr %9, align 4
  %66 = call ptr @__errno_location() #8
  store i32 %65, ptr %66, align 4
  %67 = call i32 (ptr, ...) @error(ptr noundef @.str.4)
  br label %68

68:                                               ; preds = %64, %60
  call void @llvm.lifetime.end.p0(i64 4, ptr %9) #7
  br label %69

69:                                               ; preds = %68
  br label %70

70:                                               ; preds = %69
  %71 = load ptr, ptr %2, align 8
  %72 = call i32 @pthread_create(ptr noundef @tid, ptr noundef %7, ptr noundef @_monitor, ptr noundef %71) #7
  store i32 %72, ptr %8, align 4
  %73 = load i32, ptr %8, align 4
  %74 = icmp ne i32 %73, 0
  br i1 %74, label %75, label %78

75:                                               ; preds = %70
  %76 = load i32, ptr %8, align 4
  %77 = call ptr @__errno_location() #8
  store i32 %76, ptr %77, align 4
  call void (ptr, ...) @fatal(ptr noundef @.str.5, ptr noundef @__func__.step_terminate_monitor_start) #9
  unreachable

78:                                               ; preds = %70
  br label %79

79:                                               ; preds = %78
  call void @llvm.lifetime.start.p0(i64 4, ptr %10) #7
  %80 = call i32 @pthread_attr_destroy(ptr noundef %7) #7
  store i32 %80, ptr %10, align 4
  %81 = load i32, ptr %10, align 4
  %82 = icmp ne i32 %81, 0
  br i1 %82, label %83, label %87

83:                                               ; preds = %79
  %84 = load i32, ptr %10, align 4
  %85 = call ptr @__errno_location() #8
  store i32 %84, ptr %85, align 4
  %86 = call i32 (ptr, ...) @error(ptr noundef @.str.6)
  br label %87

87:                                               ; preds = %83, %79
  call void @llvm.lifetime.end.p0(i64 4, ptr %10) #7
  br label %88

88:                                               ; preds = %87
  br label %89

89:                                               ; preds = %88
  call void @llvm.lifetime.end.p0(i64 4, ptr %8) #7
  call void @llvm.lifetime.end.p0(i64 56, ptr %7) #7
  br label %90

90:                                               ; preds = %89
  br label %91

91:                                               ; preds = %90
  %92 = load ptr, ptr %2, align 8
  %93 = getelementptr inbounds nuw %struct.stepd_step_rec_t, ptr %92, i32 0, i32 5
  %94 = getelementptr inbounds nuw %struct.slurm_step_id_msg, ptr %93, i32 0, i32 1
  %95 = load i32, ptr %94, align 8
  store i32 %95, ptr @recorded_jobid, align 4
  %96 = load ptr, ptr %2, align 8
  %97 = getelementptr inbounds nuw %struct.stepd_step_rec_t, ptr %96, i32 0, i32 5
  %98 = getelementptr inbounds nuw %struct.slurm_step_id_msg, ptr %97, i32 0, i32 3
  %99 = load i32, ptr %98, align 8
  store i32 %99, ptr @recorded_stepid, align 4
  br label %100

100:                                              ; preds = %91
  call void @llvm.lifetime.start.p0(i64 4, ptr %11) #7
  %101 = call i32 @pthread_mutex_unlock(ptr noundef @lock) #7
  store i32 %101, ptr %11, align 4
  %102 = load i32, ptr %11, align 4
  %103 = icmp ne i32 %102, 0
  br i1 %103, label %104, label %107

104:                                              ; preds = %100
  %105 = load i32, ptr %11, align 4
  %106 = call ptr @__errno_location() #8
  store i32 %105, ptr %106, align 4
  call void (ptr, ...) @fatal_abort(ptr noundef @.str.1, ptr noundef @__func__.step_terminate_monitor_start) #9
  unreachable

107:                                              ; preds = %100
  call void @llvm.lifetime.end.p0(i64 4, ptr %11) #7
  br label %108

108:                                              ; preds = %107
  br label %109

109:                                              ; preds = %108
  store i32 0, ptr %6, align 4
  br label %110

110:                                              ; preds = %109, %34
  call void @llvm.lifetime.end.p0(i64 8, ptr %3) #7
  %111 = load i32, ptr %6, align 4
  switch i32 %111, label %113 [
    i32 0, label %112
    i32 1, label %112
  ]

112:                                              ; preds = %110, %110
  ret void

113:                                              ; preds = %110
  unreachable
}