; Function Attrs: nounwind uwtable
define dso_local void @step_terminate_monitor_start(ptr noundef %0) local_unnamed_addr #0 {
  %2 = alloca %union.pthread_attr_t, align 8
  %3 = tail call i32 @pthread_mutex_lock(ptr noundef nonnull @lock) #7
  %.not = icmp eq i32 %3, 0
  br i1 %.not, label %6, label %4

4:                                                ; preds = %1
  %5 = tail call ptr @__errno_location() #8
  store i32 %3, ptr %5, align 4
  tail call void (ptr, ...) @fatal_abort(ptr noundef nonnull @.str, ptr noundef nonnull @__func__.step_terminate_monitor_start) #9
  unreachable

6:                                                ; preds = %1
  %.b27 = load i1, ptr @running_flag, align 1
  br i1 %.b27, label %7, label %11

7:                                                ; preds = %6
  %8 = tail call i32 @pthread_mutex_unlock(ptr noundef nonnull @lock) #7
  %.not34 = icmp eq i32 %8, 0
  br i1 %.not34, label %48, label %9

9:                                                ; preds = %7
  %10 = tail call ptr @__errno_location() #8
  store i32 %8, ptr %10, align 4
  tail call void (ptr, ...) @fatal_abort(ptr noundef nonnull @.str.1, ptr noundef nonnull @__func__.step_terminate_monitor_start) #9
  unreachable

11:                                               ; preds = %6
  %12 = tail call ptr @slurm_conf_lock() #7
  %13 = getelementptr inbounds nuw i8, ptr %12, i64 1504
  %14 = load i16, ptr %13, align 8
  store i16 %14, ptr @timeout, align 2
  %15 = getelementptr inbounds nuw i8, ptr %12, i64 1496
  %16 = load ptr, ptr %15, align 8
  %17 = tail call ptr @xstrdup(ptr noundef %16) #7
  store ptr %17, ptr @program_name, align 8
  tail call void @slurm_conf_unlock() #7
  store i1 true, ptr @running_flag, align 1
  call void @llvm.lifetime.start.p0(i64 56, ptr nonnull %2) #7
  %18 = call i32 @pthread_attr_init(ptr noundef nonnull %2) #7
  %.not28 = icmp eq i32 %18, 0
  br i1 %.not28, label %21, label %19

19:                                               ; preds = %11
  %20 = tail call ptr @__errno_location() #8
  store i32 %18, ptr %20, align 4
  call void (ptr, ...) @fatal(ptr noundef nonnull @.str.2) #9
  unreachable

21:                                               ; preds = %11
  %22 = call i32 @pthread_attr_setscope(ptr noundef nonnull %2, i32 noundef 0) #7
  %.not29 = icmp eq i32 %22, 0
  br i1 %.not29, label %26, label %23

23:                                               ; preds = %21
  %24 = tail call ptr @__errno_location() #8
  store i32 %22, ptr %24, align 4
  %25 = call i32 (ptr, ...) @error(ptr noundef nonnull @.str.3) #7
  br label %26

26:                                               ; preds = %23, %21
  %27 = call i32 @pthread_attr_setstacksize(ptr noundef nonnull %2, i64 noundef 1048576) #7
  %.not30 = icmp eq i32 %27, 0
  br i1 %.not30, label %31, label %28

28:                                               ; preds = %26
  %29 = tail call ptr @__errno_location() #8
  store i32 %27, ptr %29, align 4
  %30 = call i32 (ptr, ...) @error(ptr noundef nonnull @.str.4) #7
  br label %31

31:                                               ; preds = %28, %26
  %32 = call i32 @pthread_create(ptr noundef nonnull @tid, ptr noundef nonnull %2, ptr noundef nonnull @_monitor, ptr noundef %0) #7
  %.not31 = icmp eq i32 %32, 0
  br i1 %.not31, label %35, label %33

33:                                               ; preds = %31
  %34 = tail call ptr @__errno_location() #8
  store i32 %32, ptr %34, align 4
  call void (ptr, ...) @fatal(ptr noundef nonnull @.str.5, ptr noundef nonnull @__func__.step_terminate_monitor_start) #9
  unreachable

35:                                               ; preds = %31
  %36 = call i32 @pthread_attr_destroy(ptr noundef nonnull %2) #7
  %.not32 = icmp eq i32 %36, 0
  br i1 %.not32, label %40, label %37

37:                                               ; preds = %35
  %38 = tail call ptr @__errno_location() #8
  store i32 %36, ptr %38, align 4
  %39 = call i32 (ptr, ...) @error(ptr noundef nonnull @.str.6) #7
  br label %40

40:                                               ; preds = %37, %35
  call void @llvm.lifetime.end.p0(i64 56, ptr nonnull %2) #7
  %41 = getelementptr inbounds nuw i8, ptr %0, i64 120
  %42 = load i32, ptr %41, align 8
  store i32 %42, ptr @recorded_jobid, align 4
  %43 = getelementptr inbounds nuw i8, ptr %0, i64 128
  %44 = load i32, ptr %43, align 8
  store i32 %44, ptr @recorded_stepid, align 4
  %45 = call i32 @pthread_mutex_unlock(ptr noundef nonnull @lock) #7
  %.not33 = icmp eq i32 %45, 0
  br i1 %.not33, label %48, label %46

46:                                               ; preds = %40
  %47 = tail call ptr @__errno_location() #8
  store i32 %45, ptr %47, align 4
  call void (ptr, ...) @fatal_abort(ptr noundef nonnull @.str.1, ptr noundef nonnull @__func__.step_terminate_monitor_start) #9
  unreachable

48:                                               ; preds = %40, %7
  ret void
}